target datalayout = "e-m:e-p270:32:32-p271:32:32-p272:64:64-i64:64-i128:128-f80:128-n8:16:32:64-S128"
target triple = "x86_64-pc-linux-gnu"

@cState = internal global i64 0, align 8
@i_new = internal global i64 0, align 8
@rb_cHash = external global i64, align 8

; Function Attrs: nounwind sspstrong uwtable
define internal i64 @cState_from_state_s(i64 noundef %0, i64 noundef %1) #0 {
  %3 = alloca i64, align 8
  %4 = alloca i64, align 8
  %5 = alloca i64, align 8
  store i64 %0, ptr %4, align 8, !tbaa !6
  store i64 %1, ptr %5, align 8, !tbaa !6
  %6 = load i64, ptr %5, align 8, !tbaa !6
  %7 = load i64, ptr %4, align 8, !tbaa !6
  %8 = call i64 @rb_obj_is_kind_of(i64 noundef %6, i64 noundef %7)
  %9 = icmp ne i64 %8, 0
  br i1 %9, label %10, label %12

10:                                               ; preds = %2
  %11 = load i64, ptr %5, align 8, !tbaa !6
  store i64 %11, ptr %3, align 8
  br label %25

12:                                               ; preds = %2
  %13 = load i64, ptr %5, align 8, !tbaa !6
  %14 = load i64, ptr @rb_cHash, align 8, !tbaa !6
  %15 = call i64 @rb_obj_is_kind_of(i64 noundef %13, i64 noundef %14)
  %16 = icmp ne i64 %15, 0
  br i1 %16, label %17, label %22

17:                                               ; preds = %12
  %18 = load i64, ptr %4, align 8, !tbaa !6
  %19 = load i64, ptr @i_new, align 8, !tbaa !6
  %20 = load i64, ptr %5, align 8, !tbaa !6
  %21 = call i64 (i64, i64, i32, ...) @rb_funcall(i64 noundef %18, i64 noundef %19, i32 noundef 1, i64 noundef %20)
  store i64 %21, ptr %3, align 8
  br label %25

22:                                               ; preds = %12
  %23 = load i64, ptr @cState, align 8, !tbaa !6
  %24 = call i64 @rb_class_new_instance(i32 noundef 0, ptr noundef null, i64 noundef %23)
  store i64 %24, ptr %3, align 8
  br label %25

25:                                               ; preds = %22, %17, %10
  %26 = load i64, ptr %3, align 8
  ret i64 %26
}

; Function Attrs: inlinehint nounwind sspstrong uwtable
define internal i32 @rb_check_arity(i32 noundef %0, i32 noundef %1, i32 noundef %2) #4 {
  %4 = alloca i32, align 4
  %5 = alloca i32, align 4
  %6 = alloca i32, align 4
  store i32 %0, ptr %4, align 4, !tbaa !10
  store i32 %1, ptr %5, align 4, !tbaa !10
  store i32 %2, ptr %6, align 4, !tbaa !10
  %7 = load i32, ptr %4, align 4, !tbaa !10
  %8 = load i32, ptr %5, align 4, !tbaa !10
  %9 = icmp slt i32 %7, %8
  br i1 %9, label %17, label %10

10:                                               ; preds = %3
  %11 = load i32, ptr %6, align 4, !tbaa !10
  %12 = icmp ne i32 %11, -1
  br i1 %12, label %13, label %21

13:                                               ; preds = %10
  %14 = load i32, ptr %4, align 4, !tbaa !10
  %15 = load i32, ptr %6, align 4, !tbaa !10
  %16 = icmp sgt i32 %14, %15
  br i1 %16, label %17, label %21

17:                                               ; preds = %13, %3
  %18 = load i32, ptr %4, align 4, !tbaa !10
  %19 = load i32, ptr %5, align 4, !tbaa !10
  %20 = load i32, ptr %6, align 4, !tbaa !10
  call void @rb_error_arity(i32 noundef %18, i32 noundef %19, i32 noundef %20) #30
  unreachable

21:                                               ; preds = %13, %10
  %22 = load i32, ptr %4, align 4, !tbaa !10
  ret i32 %22
}

; Function Attrs: nounwind sspstrong uwtable
define internal i64 @mHash_to_json(i32 noundef %0, ptr noundef %1, i64 noundef %2) #0 {
  %4 = alloca i32, align 4
  %5 = alloca ptr, align 8
  %6 = alloca i64, align 8
  %7 = alloca i64, align 8
  store i32 %0, ptr %4, align 4, !tbaa !10
  store ptr %1, ptr %5, align 8, !tbaa !15
  store i64 %2, ptr %6, align 8, !tbaa !6
  %8 = load i32, ptr %4, align 4, !tbaa !10
  %9 = call i32 @rb_check_arity(i32 noundef %8, i32 noundef 0, i32 noundef 1)
  call void @llvm.lifetime.start.p0(i64 8, ptr %7) #27
  %10 = load i64, ptr @cState, align 8, !tbaa !6
  %11 = load i32, ptr %4, align 4, !tbaa !10
  %12 = icmp eq i32 %11, 1
  br i1 %12, label %13, label %17

13:                                               ; preds = %3
  %14 = load ptr, ptr %5, align 8, !tbaa !15
  %15 = getelementptr inbounds i64, ptr %14, i64 0
  %16 = load i64, ptr %15, align 8, !tbaa !6
  br label %18

17:                                               ; preds = %3
  br label %18

18:                                               ; preds = %17, %13
  %19 = phi i64 [ %16, %13 ], [ 4, %17 ]
  %20 = call i64 @cState_from_state_s(i64 noundef %10, i64 noundef %19)
  store i64 %20, ptr %7, align 8, !tbaa !6
  %21 = load i64, ptr %7, align 8, !tbaa !6
  %22 = load i64, ptr %6, align 8, !tbaa !6
  %23 = call i64 @cState_partial_generate(i64 noundef %21, i64 noundef %22, ptr noundef @generate_json_object, i64 noundef 0)
  call void @llvm.lifetime.end.p0(i64 8, ptr %7) #27
  ret i64 %23
}