; Function Attrs: nounwind sspstrong uwtable
define internal i64 @mHash_to_json(i32 noundef %0, ptr noundef readonly captures(none) %1, i64 noundef %2) #0 {
  %or.cond.i = icmp ugt i32 %0, 1
  br i1 %or.cond.i, label %4, label %rb_check_arity.exit

4:                                                ; preds = %3
  tail call void @rb_error_arity(i32 noundef %0, i32 noundef 0, i32 noundef 1) #26
  unreachable

rb_check_arity.exit:                              ; preds = %3
  %5 = load i64, ptr @cState, align 8, !tbaa !6
  %6 = icmp eq i32 %0, 1
  br i1 %6, label %7, label %9

7:                                                ; preds = %rb_check_arity.exit
  %8 = load i64, ptr %1, align 8, !tbaa !6
  br label %9

9:                                                ; preds = %rb_check_arity.exit, %7
  %10 = phi i64 [ %8, %7 ], [ 4, %rb_check_arity.exit ]
  %11 = tail call i64 @rb_obj_is_kind_of(i64 noundef %10, i64 noundef %5) #22
  %.not.i = icmp eq i64 %11, 0
  br i1 %.not.i, label %12, label %cState_from_state_s.exit

12:                                               ; preds = %9
  %13 = load i64, ptr @rb_cHash, align 8, !tbaa !6
  %14 = tail call i64 @rb_obj_is_kind_of(i64 noundef %10, i64 noundef %13) #22
  %.not7.i = icmp eq i64 %14, 0
  br i1 %.not7.i, label %18, label %15

15:                                               ; preds = %12
  %16 = load i64, ptr @i_new, align 8, !tbaa !6
  %17 = tail call i64 (i64, i64, i32, ...) @rb_funcall(i64 noundef %5, i64 noundef %16, i32 noundef 1, i64 noundef %10) #22
  br label %cState_from_state_s.exit

18:                                               ; preds = %12
  %19 = load i64, ptr @cState, align 8, !tbaa !6
  %20 = tail call i64 @rb_class_new_instance(i32 noundef 0, ptr noundef null, i64 noundef %19) #22
  br label %cState_from_state_s.exit

cState_from_state_s.exit:                         ; preds = %9, %15, %18
  %.0.i = phi i64 [ %17, %15 ], [ %20, %18 ], [ %10, %9 ]
  %21 = tail call fastcc i64 @cState_partial_generate(i64 noundef %.0.i, i64 noundef %2, ptr noundef nonnull @generate_json_object, i64 noundef 0)
  ret i64 %21
}